target datalayout = "e-m:e-p270:32:32-p271:32:32-p272:64:64-i64:64-i128:128-f80:128-n8:16:32:64-S128"
target triple = "x86_64-pc-linux-gnu"

%struct.redisServer = type { i32, i64, ptr, ptr, ptr, i32, i32, i32, i32, i32, ptr, ptr, ptr, ptr, ptr, i32, i32, i32, i32, i64, i32, i32, i32, i32, ptr, i32, i32, [41 x i8], i32, i64, i32, i32, i32, ptr, ptr, i32, i32, i64, ptr, ptr, ptr, ptr, [2 x i32], i32, i32, i32, i32, i32, i32, [16 x ptr], i32, ptr, ptr, i32, [8 x %struct.connListener], i32, %struct.connListener, ptr, ptr, ptr, ptr, ptr, ptr, ptr, ptr, ptr, ptr, i32, ptr, i32, ptr, [3 x %struct.pause_event], [256 x i8], ptr, i64, i32, i32, [128 x i32], i32, i32, i64, i32, i32, i32, i32, i32, i64, i64, i64, i64, i64, i64, i64, i64, i64, i64, double, i64, i64, i64, i64, i64, i64, i64, i64, i64, i64, i64, i64, i64, i64, i64, i64, i64, i64, i64, i64, i64, double, i64, i64, i64, i64, i64, ptr, i64, i64, i64, %struct.malloc_stats, i64, i64, i64, i64, i64, i64, i64, i64, i64, i64, i64, i64, double, [4 x i64], i64, i64, i64, i64, [128 x i64], [128 x i64], i64, i64, [7 x %struct.anon], i64, i64, i64, i64, i64, i64, [4 x %struct.durationStats], i32, i32, i32, i32, i32, i32, i32, i32, i32, i32, i32, i32, i64, i32, i32, i32, i32, i64, i64, i32, i32, i32, i32, i32, ptr, [3 x %struct.clientBufferLimitsConfig], i32, i32, i32, ptr, i32, i32, i32, i32, i32, i32, ptr, ptr, i32, i32, i64, i64, i64, i64, i64, i32, i32, ptr, i32, i32, i64, i64, i64, i64, i64, i32, i32, i64, i32, i32, i32, i32, i32, i32, i32, i32, ptr, i32, i64, i64, i64, i64, i32, ptr, i32, ptr, i32, i32, i32, i64, i64, i64, i64, i32, i32, i32, i32, i32, i32, ptr, i32, i32, ptr, i32, i32, i32, [2 x i32], i32, %struct.redisOpArray, i32, ptr, i32, ptr, i32, i32, i32, i32, i32, i32, i32, [41 x i8], [41 x i8], i64, i64, i64, i64, i32, i32, ptr, i64, i64, %struct.replDataBuf, i64, i64, i32, i32, i32, i32, i32, i32, i32, i32, i32, i64, ptr, i64, ptr, ptr, ptr, i32, i32, ptr, ptr, i32, i32, i32, i64, i64, i64, i64, ptr, ptr, i32, ptr, i64, i32, i32, i32, i64, i32, i32, i32, i32, ptr, i32, i32, [41 x i8], i64, i32, ptr, i32, i32, i64, i64, i32, i32, i32, i32, i32, i64, [3 x i32], i32, i32, i32, [10 x i32], ptr, ptr, i32, i64, ptr, ptr, i32, i32, i32, i32, i64, i64, i64, i64, i64, i64, i64, i64, i64, i64, i32, i32, i64, i64, i32, i64, i64, i64, i64, i64, ptr, ptr, i32, ptr, i32, i32, i32, i32, i64, i64, ptr, ptr, i32, i32, i32, i32, i32, ptr, ptr, ptr, i32, i32, i32, i32, i32, i32, i32, i64, i32, i32, i64, i32, i32, i32, i32, i32, i32, i32, i64, ptr, ptr, i64, ptr, i32, %struct.aclInfo, i32, i64, i32, i32, i32, %struct.redisTLSContextConfig, ptr, ptr, ptr, ptr, ptr, i64, i32, ptr, i32, i32, i32, i64, i32, ptr }
%struct.connListener = type { [16 x i32], i32, ptr, i32, i32, ptr, ptr }
%struct.pause_event = type { i32, i64 }
%struct.malloc_stats = type { i64, i64, i64, i64, i64, i64, i64, i64, i64, i64, i64 }
%struct.anon = type { i64, i64, [16 x i64], i32 }
%struct.durationStats = type { i64, i64, i64 }
%struct.clientBufferLimitsConfig = type { i64, i64, i64 }
%struct.redisOpArray = type { ptr, i32, i32 }
%struct.replDataBuf = type { ptr, i64, i64, i64, i64 }
%struct.aclInfo = type { i64, i64, i64, i64 }
%struct.redisTLSContextConfig = type { ptr, ptr, ptr, ptr, ptr, ptr, ptr, ptr, ptr, ptr, ptr, ptr, i32, i32, i32, i32 }

@server = external global %struct.redisServer, align 8

; Function Attrs: nounwind uwtable
define dso_local ptr @activeDefragAlloc(ptr noundef %0) #0 {
  %2 = alloca ptr, align 8
  %3 = alloca ptr, align 8
  %4 = alloca i64, align 8
  %5 = alloca ptr, align 8
  %6 = alloca i32, align 4
  store ptr %0, ptr %3, align 8, !tbaa !5
  call void @llvm.lifetime.start.p0(i64 8, ptr %4) #10
  call void @llvm.lifetime.start.p0(i64 8, ptr %5) #10
  %7 = load ptr, ptr %3, align 8, !tbaa !5
  %8 = call i32 @je_get_defrag_hint(ptr noundef %7)
  %9 = icmp ne i32 %8, 0
  br i1 %9, label %13, label %10

10:                                               ; preds = %1
  %11 = load i64, ptr getelementptr inbounds nuw (%struct.redisServer, ptr @server, i32 0, i32 107), align 8, !tbaa !9
  %12 = add nsw i64 %11, 1
  store i64 %12, ptr getelementptr inbounds nuw (%struct.redisServer, ptr @server, i32 0, i32 107), align 8, !tbaa !9
  store ptr null, ptr %2, align 8
  store i32 1, ptr %6, align 4
  br label %25

13:                                               ; preds = %1
  %14 = load ptr, ptr %3, align 8, !tbaa !5
  %15 = call i64 @je_malloc_usable_size(ptr noundef %14) #10
  store i64 %15, ptr %4, align 8, !tbaa !39
  %16 = load i64, ptr %4, align 8, !tbaa !39
  %17 = call noalias ptr @zmalloc_no_tcache(i64 noundef %16)
  store ptr %17, ptr %5, align 8, !tbaa !5
  %18 = load ptr, ptr %5, align 8, !tbaa !5
  %19 = load ptr, ptr %3, align 8, !tbaa !5
  %20 = load i64, ptr %4, align 8, !tbaa !39
  call void @llvm.memcpy.p0.p0.i64(ptr align 1 %18, ptr align 1 %19, i64 %20, i1 false)
  %21 = load ptr, ptr %3, align 8, !tbaa !5
  call void @zfree_no_tcache(ptr noundef %21)
  %22 = load i64, ptr getelementptr inbounds nuw (%struct.redisServer, ptr @server, i32 0, i32 106), align 8, !tbaa !40
  %23 = add nsw i64 %22, 1
  store i64 %23, ptr getelementptr inbounds nuw (%struct.redisServer, ptr @server, i32 0, i32 106), align 8, !tbaa !40
  %24 = load ptr, ptr %5, align 8, !tbaa !5
  store ptr %24, ptr %2, align 8
  store i32 1, ptr %6, align 4
  br label %25

25:                                               ; preds = %13, %10
  call void @llvm.lifetime.end.p0(i64 8, ptr %5) #10
  call void @llvm.lifetime.end.p0(i64 8, ptr %4) #10
  %26 = load ptr, ptr %2, align 8
  ret ptr %26
}

; Function Attrs: nounwind uwtable
define dso_local i32 @defragRaxNode(ptr noundef %0) #0 {
  %2 = alloca i32, align 4
  %3 = alloca ptr, align 8
  %4 = alloca ptr, align 8
  %5 = alloca i32, align 4
  store ptr %0, ptr %3, align 8, !tbaa !122
  call void @llvm.lifetime.start.p0(i64 8, ptr %4) #10
  %6 = load ptr, ptr %3, align 8, !tbaa !122
  %7 = load ptr, ptr %6, align 8, !tbaa !124
  %8 = call ptr @activeDefragAlloc(ptr noundef %7)
  store ptr %8, ptr %4, align 8, !tbaa !124
  %9 = load ptr, ptr %4, align 8, !tbaa !124
  %10 = icmp ne ptr %9, null
  br i1 %10, label %11, label %14

11:                                               ; preds = %1
  %12 = load ptr, ptr %4, align 8, !tbaa !124
  %13 = load ptr, ptr %3, align 8, !tbaa !122
  store ptr %12, ptr %13, align 8, !tbaa !124
  store i32 1, ptr %2, align 4
  store i32 1, ptr %5, align 4
  br label %15

14:                                               ; preds = %1
  store i32 0, ptr %2, align 4
  store i32 1, ptr %5, align 4
  br label %15

15:                                               ; preds = %14, %11
  call void @llvm.lifetime.end.p0(i64 8, ptr %4) #10
  %16 = load i32, ptr %2, align 4
  ret i32 %16
}