; Function Attrs: nounwind uwtable
define dso_local range(i32 0, 2) i32 @defragRaxNode(ptr noundef captures(none) %0) #0 {
  %2 = load ptr, ptr %0, align 8, !tbaa !102
  %3 = tail call i32 @je_get_defrag_hint(ptr noundef %2) #10
  %.not.i = icmp eq i32 %3, 0
  br i1 %.not.i, label %activeDefragAlloc.exit.thread, label %activeDefragAlloc.exit

activeDefragAlloc.exit.thread:                    ; preds = %1
  %4 = load i64, ptr getelementptr inbounds nuw (i8, ptr @server, i64 2592), align 8, !tbaa !5
  %5 = add nsw i64 %4, 1
  store i64 %5, ptr getelementptr inbounds nuw (i8, ptr @server, i64 2592), align 8, !tbaa !5
  br label %11

activeDefragAlloc.exit:                           ; preds = %1
  %6 = tail call i64 @je_malloc_usable_size(ptr noundef %2) #10
  %7 = tail call noalias ptr @zmalloc_no_tcache(i64 noundef %6) #10
  tail call void @llvm.memcpy.p0.p0.i64(ptr align 1 %7, ptr align 1 %2, i64 %6, i1 false)
  tail call void @zfree_no_tcache(ptr noundef %2) #10
  %8 = load i64, ptr getelementptr inbounds nuw (i8, ptr @server, i64 2584), align 8, !tbaa !38
  %9 = add nsw i64 %8, 1
  store i64 %9, ptr getelementptr inbounds nuw (i8, ptr @server, i64 2584), align 8, !tbaa !38
  %.not = icmp eq ptr %7, null
  br i1 %.not, label %11, label %10

10:                                               ; preds = %activeDefragAlloc.exit
  store ptr %7, ptr %0, align 8, !tbaa !102
  br label %11

11:                                               ; preds = %activeDefragAlloc.exit.thread, %activeDefragAlloc.exit, %10
  %.0 = phi i32 [ 1, %10 ], [ 0, %activeDefragAlloc.exit ], [ 0, %activeDefragAlloc.exit.thread ]
  ret i32 %.0
}